; ModuleID = '44/149.c'
source_filename = "44/149.c"
target datalayout = "e-m:e-p270:32:32-p271:32:32-p272:64:64-i64:64-f80:128-n8:16:32:64-S128"
target triple = "x86_64-pc-linux-gnu"

@.str = private unnamed_addr constant [3 x i8] c"%d\00", align 1
@.str.1 = private unnamed_addr constant [4 x i8] c"%d\0A\00", align 1

; Function Attrs: noinline nounwind uwtable
define dso_local i32 @main() #0 {
  %1 = alloca i32, align 4
  %2 = alloca i32, align 4
  %3 = alloca i32, align 4
  %4 = alloca [6 x i32], align 16
  store i32 0, i32* %1, align 4
  store i32 0, i32* %2, align 4
  br label %5

5:                                                ; preds = %13, %0
  %6 = load i32, i32* %2, align 4
  %7 = icmp slt i32 %6, 6
  br i1 %7, label %8, label %16

8:                                                ; preds = %5
  %9 = load i32, i32* %2, align 4
  %10 = sext i32 %9 to i64
  %11 = getelementptr inbounds [6 x i32], [6 x i32]* %4, i64 0, i64 %10
  %12 = call i32 (i8*, ...) @__isoc99_scanf(i8* getelementptr inbounds ([3 x i8], [3 x i8]* @.str, i64 0, i64 0), i32* %11)
  br label %13

13:                                               ; preds = %8
  %14 = load i32, i32* %2, align 4
  %15 = add nsw i32 %14, 1
  store i32 %15, i32* %2, align 4
  br label %5

16:                                               ; preds = %5
  store i32 0, i32* %2, align 4
  br label %17

17:                                               ; preds = %28, %16
  %18 = load i32, i32* %2, align 4
  %19 = icmp slt i32 %18, 6
  br i1 %19, label %20, label %31

20:                                               ; preds = %17
  %21 = load i32, i32* %2, align 4
  %22 = sext i32 %21 to i64
  %23 = getelementptr inbounds [6 x i32], [6 x i32]* %4, i64 0, i64 %22
  %24 = load i32, i32* %23, align 4
  %25 = call i32 @reverse(i32 %24)
  store i32 %25, i32* %3, align 4
  %26 = load i32, i32* %3, align 4
  %27 = call i32 (i8*, ...) @printf(i8* getelementptr inbounds ([4 x i8], [4 x i8]* @.str.1, i64 0, i64 0), i32 %26)
  br label %28

28:                                               ; preds = %20
  %29 = load i32, i32* %2, align 4
  %30 = add nsw i32 %29, 1
  store i32 %30, i32* %2, align 4
  br label %17

31:                                               ; preds = %17
  ret i32 0
}

declare dso_local i32 @__isoc99_scanf(i8*, ...) #1

; Function Attrs: noinline nounwind uwtable
define dso_local i32 @reverse(i32 %0) #0 {
  %2 = alloca i32, align 4
  %3 = alloca i32, align 4
  %4 = alloca i32, align 4
  %5 = alloca i32, align 4
  %6 = alloca i32, align 4
  %7 = alloca i32, align 4
  %8 = alloca i32, align 4
  %9 = alloca i32, align 4
  %10 = alloca i32, align 4
  store i32 %0, i32* %2, align 4
  store i32 0, i32* %3, align 4
  store i32 0, i32* %4, align 4
  store i32 0, i32* %5, align 4
  store i32 0, i32* %6, align 4
  store i32 0, i32* %7, align 4
  %11 = load i32, i32* %2, align 4
  %12 = call i32 @abs(i32 %11) #3
  store i32 %12, i32* %8, align 4
  %13 = load i32, i32* %8, align 4
  %14 = sdiv i32 %13, 10000
  store i32 %14, i32* %7, align 4
  %15 = load i32, i32* %8, align 4
  %16 = sdiv i32 %15, 1000
  %17 = load i32, i32* %7, align 4
  %18 = mul nsw i32 %17, 10
  %19 = sub nsw i32 %16, %18
  store i32 %19, i32* %6, align 4
  %20 = load i32, i32* %8, align 4
  %21 = sdiv i32 %20, 100
  %22 = load i32, i32* %7, align 4
  %23 = mul nsw i32 %22, 100
  %24 = sub nsw i32 %21, %23
  %25 = load i32, i32* %6, align 4
  %26 = mul nsw i32 %25, 10
  %27 = sub nsw i32 %24, %26
  store i32 %27, i32* %5, align 4
  %28 = load i32, i32* %8, align 4
  %29 = sdiv i32 %28, 10
  %30 = load i32, i32* %7, align 4
  %31 = mul nsw i32 %30, 1000
  %32 = sub nsw i32 %29, %31
  %33 = load i32, i32* %6, align 4
  %34 = mul nsw i32 %33, 100
  %35 = sub nsw i32 %32, %34
  %36 = load i32, i32* %5, align 4
  %37 = mul nsw i32 %36, 10
  %38 = sub nsw i32 %35, %37
  store i32 %38, i32* %4, align 4
  %39 = load i32, i32* %8, align 4
  %40 = srem i32 %39, 10
  store i32 %40, i32* %3, align 4
  %41 = load i32, i32* %7, align 4
  %42 = icmp ne i32 %41, 0
  br i1 %42, label %43, label %57

43:                                               ; preds = %1
  %44 = load i32, i32* %3, align 4
  %45 = mul nsw i32 %44, 10000
  %46 = load i32, i32* %4, align 4
  %47 = mul nsw i32 %46, 1000
  %48 = add nsw i32 %45, %47
  %49 = load i32, i32* %5, align 4
  %50 = mul nsw i32 %49, 100
  %51 = add nsw i32 %48, %50
  %52 = load i32, i32* %6, align 4
  %53 = mul nsw i32 %52, 10
  %54 = add nsw i32 %51, %53
  %55 = load i32, i32* %7, align 4
  %56 = add nsw i32 %54, %55
  store i32 %56, i32* %9, align 4
  br label %57

57:                                               ; preds = %43, %1
  %58 = load i32, i32* %7, align 4
  %59 = icmp eq i32 %58, 0
  br i1 %59, label %60, label %74

60:                                               ; preds = %57
  %61 = load i32, i32* %6, align 4
  %62 = icmp ne i32 %61, 0
  br i1 %62, label %63, label %74

63:                                               ; preds = %60
  %64 = load i32, i32* %3, align 4
  %65 = mul nsw i32 %64, 1000
  %66 = load i32, i32* %4, align 4
  %67 = mul nsw i32 %66, 100
  %68 = add nsw i32 %65, %67
  %69 = load i32, i32* %5, align 4
  %70 = mul nsw i32 %69, 10
  %71 = add nsw i32 %68, %70
  %72 = load i32, i32* %6, align 4
  %73 = add nsw i32 %71, %72
  store i32 %73, i32* %9, align 4
  br label %74

74:                                               ; preds = %63, %60, %57
  %75 = load i32, i32* %7, align 4
  %76 = icmp eq i32 %75, 0
  br i1 %76, label %77, label %91

77:                                               ; preds = %74
  %78 = load i32, i32* %6, align 4
  %79 = icmp eq i32 %78, 0
  br i1 %79, label %80, label %91

80:                                               ; preds = %77
  %81 = load i32, i32* %5, align 4
  %82 = icmp ne i32 %81, 0
  br i1 %82, label %83, label %91

83:                                               ; preds = %80
  %84 = load i32, i32* %3, align 4
  %85 = mul nsw i32 %84, 100
  %86 = load i32, i32* %4, align 4
  %87 = mul nsw i32 %86, 10
  %88 = add nsw i32 %85, %87
  %89 = load i32, i32* %5, align 4
  %90 = add nsw i32 %88, %89
  store i32 %90, i32* %9, align 4
  br label %91

91:                                               ; preds = %83, %80, %77, %74
  %92 = load i32, i32* %7, align 4
  %93 = icmp eq i32 %92, 0
  br i1 %93, label %94, label %108

94:                                               ; preds = %91
  %95 = load i32, i32* %6, align 4
  %96 = icmp eq i32 %95, 0
  br i1 %96, label %97, label %108

97:                                               ; preds = %94
  %98 = load i32, i32* %5, align 4
  %99 = icmp eq i32 %98, 0
  br i1 %99, label %100, label %108

100:                                              ; preds = %97
  %101 = load i32, i32* %4, align 4
  %102 = icmp ne i32 %101, 0
  br i1 %102, label %103, label %108

103:                                              ; preds = %100
  %104 = load i32, i32* %3, align 4
  %105 = mul nsw i32 %104, 10
  %106 = load i32, i32* %4, align 4
  %107 = add nsw i32 %105, %106
  store i32 %107, i32* %9, align 4
  br label %108

108:                                              ; preds = %103, %100, %97, %94, %91
  %109 = load i32, i32* %7, align 4
  %110 = icmp eq i32 %109, 0
  br i1 %110, label %111, label %122

111:                                              ; preds = %108
  %112 = load i32, i32* %6, align 4
  %113 = icmp eq i32 %112, 0
  br i1 %113, label %114, label %122

114:                                              ; preds = %111
  %115 = load i32, i32* %5, align 4
  %116 = icmp eq i32 %115, 0
  br i1 %116, label %117, label %122

117:                                              ; preds = %114
  %118 = load i32, i32* %4, align 4
  %119 = icmp eq i32 %118, 0
  br i1 %119, label %120, label %122

120:                                              ; preds = %117
  %121 = load i32, i32* %3, align 4
  store i32 %121, i32* %9, align 4
  br label %122

122:                                              ; preds = %120, %117, %114, %111, %108
  %123 = load i32, i32* %2, align 4
  %124 = icmp slt i32 %123, 0
  br i1 %124, label %125, label %128

125:                                              ; preds = %122
  %126 = load i32, i32* %9, align 4
  %127 = mul nsw i32 %126, -1
  store i32 %127, i32* %10, align 4
  br label %130

128:                                              ; preds = %122
  %129 = load i32, i32* %9, align 4
  store i32 %129, i32* %10, align 4
  br label %130

130:                                              ; preds = %128, %125
  %131 = load i32, i32* %10, align 4
  ret i32 %131
}

declare dso_local i32 @printf(i8*, ...) #1

; Function Attrs: nounwind readnone
declare dso_local i32 @abs(i32) #2


!llvm.module.flags = !{!0}
!llvm.ident = !{!1}

!0 = !{i32 1, !"wchar_size", i32 4}
!1 = !{!"clang version 10.0.0-4ubuntu1 "}
